target datalayout = "e-m:e-p270:32:32-p271:32:32-p272:64:64-i64:64-i128:128-f80:128-n8:16:32:64-S128"
target triple = "x86_64-pc-linux-gnu"

%struct.pmix_pointer_array_t = type { %struct.pmix_object_t, i32, i32, i32, i32, i32, ptr, ptr }
%struct.pmix_object_t = type { %union.pthread_mutex_t, ptr, i32, %struct.pmix_tma }
%union.pthread_mutex_t = type { %struct.__pthread_mutex_s }
%struct.__pthread_mutex_s = type { i32, i32, i32, i32, i32, i16, i16, %struct.__pthread_internal_list }
%struct.__pthread_internal_list = type { ptr, ptr }
%struct.pmix_tma = type { ptr, ptr, ptr, ptr, ptr, ptr, ptr, ptr }
%struct.pmix_mca_base_framework_t = type { ptr, ptr, ptr, ptr, ptr, ptr, i32, i32, ptr, ptr, i32, i32, %struct.pmix_list_t, %struct.pmix_list_t }
%struct.pmix_list_t = type { %struct.pmix_object_t, %struct.pmix_list_item_t, i64 }
%struct.pmix_list_item_t = type { %struct.pmix_object_t, ptr, ptr, i32 }
%struct.pmix_output_desc_t = type { i8, i8, i32, i8, i32, ptr, ptr, i32, ptr, i32, i8, i8, i8, i8, ptr, i32, i32 }
%struct.pmix_buffer_t = type { %struct.pmix_object_t, i8, ptr, ptr, ptr, i64, i64 }
%struct.pmix_bfrop_type_info_t = type { %struct.pmix_object_t, i16, ptr, ptr, ptr, ptr, ptr }

@pmix_bfrops_base_framework = external global %struct.pmix_mca_base_framework_t, align 8
@pmix_output_info = external global [0 x %struct.pmix_output_desc_t], align 8
@.str.2 = private unnamed_addr constant [47 x i8] c"pmix20_bfrop_unpack_buffer( %p, %p, %lu, %d )\0A\00", align 1
@.str.3 = private unnamed_addr constant [54 x i8] c"PMIX bfrop:unpack: got type %d when expecting type %d\00", align 1

; Function Attrs: inlinehint nounwind uwtable
define internal ptr @pmix_pointer_array_get_item(ptr noundef %0, i32 noundef %1) #3 {
  %3 = alloca ptr, align 8
  %4 = alloca ptr, align 8
  %5 = alloca i32, align 4
  %6 = alloca ptr, align 8
  %7 = alloca i32, align 4
  store ptr %0, ptr %4, align 8, !tbaa !13
  store i32 %1, ptr %5, align 4, !tbaa !11
  call void @llvm.lifetime.start.p0(i64 8, ptr %6) #11
  %8 = load i32, ptr %5, align 4, !tbaa !11
  %9 = icmp sgt i32 0, %8
  br i1 %9, label %16, label %10

10:                                               ; preds = %2
  %11 = load ptr, ptr %4, align 8, !tbaa !13
  %12 = getelementptr inbounds nuw %struct.pmix_pointer_array_t, ptr %11, i32 0, i32 3
  %13 = load i32, ptr %12, align 8, !tbaa !33
  %14 = load i32, ptr %5, align 4, !tbaa !11
  %15 = icmp sle i32 %13, %14
  br label %16

16:                                               ; preds = %10, %2
  %17 = phi i1 [ true, %2 ], [ %15, %10 ]
  %18 = xor i1 %17, true
  %19 = xor i1 %18, true
  %20 = zext i1 %19 to i32
  %21 = sext i32 %20 to i64
  %22 = call i64 @llvm.expect.i64(i64 %21, i64 0)
  %23 = icmp ne i64 %22, 0
  br i1 %23, label %24, label %25

24:                                               ; preds = %16
  store ptr null, ptr %3, align 8
  store i32 1, ptr %7, align 4
  br label %34

25:                                               ; preds = %16
  %26 = load ptr, ptr %4, align 8, !tbaa !13
  %27 = getelementptr inbounds nuw %struct.pmix_pointer_array_t, ptr %26, i32 0, i32 7
  %28 = load ptr, ptr %27, align 8, !tbaa !36
  %29 = load i32, ptr %5, align 4, !tbaa !11
  %30 = sext i32 %29 to i64
  %31 = getelementptr inbounds ptr, ptr %28, i64 %30
  %32 = load ptr, ptr %31, align 8, !tbaa !3
  store ptr %32, ptr %6, align 8, !tbaa !3
  %33 = load ptr, ptr %6, align 8, !tbaa !3
  store ptr %33, ptr %3, align 8
  store i32 1, ptr %7, align 4
  br label %34

34:                                               ; preds = %25, %24
  call void @llvm.lifetime.end.p0(i64 8, ptr %6) #11
  %35 = load ptr, ptr %3, align 8
  ret ptr %35
}

; Function Attrs: nounwind uwtable
define i32 @pmix20_bfrop_unpack_buffer(ptr noundef %0, ptr noundef %1, ptr noundef %2, ptr noundef %3, i16 noundef zeroext %4) #0 {
  %6 = alloca i32, align 4
  %7 = alloca ptr, align 8
  %8 = alloca ptr, align 8
  %9 = alloca ptr, align 8
  %10 = alloca ptr, align 8
  %11 = alloca i16, align 2
  %12 = alloca i32, align 4
  %13 = alloca i16, align 2
  %14 = alloca i16, align 2
  %15 = alloca i32, align 4
  %16 = alloca ptr, align 8
  store ptr %0, ptr %7, align 8, !tbaa !13
  store ptr %1, ptr %8, align 8, !tbaa !3
  store ptr %2, ptr %9, align 8, !tbaa !3
  store ptr %3, ptr %10, align 8, !tbaa !7
  store i16 %4, ptr %11, align 2, !tbaa !9
  call void @llvm.lifetime.start.p0(i64 4, ptr %12) #11
  call void @llvm.lifetime.start.p0(i64 2, ptr %13) #11
  call void @llvm.lifetime.start.p0(i64 2, ptr %14) #11
  %17 = load i32, ptr getelementptr inbounds nuw (%struct.pmix_mca_base_framework_t, ptr @pmix_bfrops_base_framework, i32 0, i32 11), align 4, !tbaa !15
  %18 = icmp sge i32 %17, 0
  br i1 %18, label %19, label %38

19:                                               ; preds = %5
  %20 = load i32, ptr getelementptr inbounds nuw (%struct.pmix_mca_base_framework_t, ptr @pmix_bfrops_base_framework, i32 0, i32 11), align 4, !tbaa !15
  %21 = icmp slt i32 %20, 64
  br i1 %21, label %22, label %38

22:                                               ; preds = %19
  %23 = load i32, ptr getelementptr inbounds nuw (%struct.pmix_mca_base_framework_t, ptr @pmix_bfrops_base_framework, i32 0, i32 11), align 4, !tbaa !15
  %24 = sext i32 %23 to i64
  %25 = getelementptr inbounds [0 x %struct.pmix_output_desc_t], ptr @pmix_output_info, i64 0, i64 %24
  %26 = getelementptr inbounds nuw %struct.pmix_output_desc_t, ptr %25, i32 0, i32 2
  %27 = load i32, ptr %26, align 4, !tbaa !26
  %28 = icmp sge i32 %27, 20
  br i1 %28, label %29, label %38

29:                                               ; preds = %22
  %30 = load i32, ptr getelementptr inbounds nuw (%struct.pmix_mca_base_framework_t, ptr @pmix_bfrops_base_framework, i32 0, i32 11), align 4, !tbaa !15
  %31 = load ptr, ptr %8, align 8, !tbaa !3
  %32 = load ptr, ptr %9, align 8, !tbaa !3
  %33 = load ptr, ptr %10, align 8, !tbaa !7
  %34 = load i32, ptr %33, align 4, !tbaa !11
  %35 = sext i32 %34 to i64
  %36 = load i16, ptr %11, align 2, !tbaa !9
  %37 = zext i16 %36 to i32
  call void (i32, ptr, ...) @pmix_output(i32 noundef %30, ptr noundef @.str.2, ptr noundef %31, ptr noundef %32, i64 noundef %35, i32 noundef %37)
  br label %38

38:                                               ; preds = %29, %22, %19, %5
  %39 = load i16, ptr %11, align 2, !tbaa !9
  %40 = zext i16 %39 to i32
  switch i32 %40, label %42 [
    i32 34, label %41
  ]

41:                                               ; preds = %38
  store i16 14, ptr %14, align 2, !tbaa !9
  br label %44

42:                                               ; preds = %38
  %43 = load i16, ptr %11, align 2, !tbaa !9
  store i16 %43, ptr %14, align 2, !tbaa !9
  br label %44

44:                                               ; preds = %42, %41
  %45 = load ptr, ptr %8, align 8, !tbaa !3
  %46 = getelementptr inbounds nuw %struct.pmix_buffer_t, ptr %45, i32 0, i32 1
  %47 = load i8, ptr %46, align 8, !tbaa !29
  %48 = zext i8 %47 to i32
  %49 = icmp eq i32 2, %48
  br i1 %49, label %50, label %69

50:                                               ; preds = %44
  %51 = load ptr, ptr %7, align 8, !tbaa !13
  %52 = load ptr, ptr %8, align 8, !tbaa !3
  %53 = call i32 @pmix20_bfrop_get_data_type(ptr noundef %51, ptr noundef %52, ptr noundef %13)
  store i32 %53, ptr %12, align 4, !tbaa !11
  %54 = icmp ne i32 0, %53
  br i1 %54, label %55, label %57

55:                                               ; preds = %50
  %56 = load i32, ptr %12, align 4, !tbaa !11
  store i32 %56, ptr %6, align 4
  store i32 1, ptr %15, align 4
  br label %92

57:                                               ; preds = %50
  %58 = load i16, ptr %14, align 2, !tbaa !9
  %59 = zext i16 %58 to i32
  %60 = load i16, ptr %13, align 2, !tbaa !9
  %61 = zext i16 %60 to i32
  %62 = icmp ne i32 %59, %61
  br i1 %62, label %63, label %68

63:                                               ; preds = %57
  %64 = load i16, ptr %13, align 2, !tbaa !9
  %65 = zext i16 %64 to i32
  %66 = load i16, ptr %14, align 2, !tbaa !9
  %67 = zext i16 %66 to i32
  call void (i32, ptr, ...) @pmix_output(i32 noundef 0, ptr noundef @.str.3, i32 noundef %65, i32 noundef %67)
  store i32 -22, ptr %6, align 4
  store i32 1, ptr %15, align 4
  br label %92

68:                                               ; preds = %57
  br label %69

69:                                               ; preds = %68, %44
  br label %70

70:                                               ; preds = %69
  call void @llvm.lifetime.start.p0(i64 8, ptr %16) #11
  %71 = load ptr, ptr %7, align 8, !tbaa !13
  %72 = load i16, ptr %14, align 2, !tbaa !9
  %73 = zext i16 %72 to i32
  %74 = call ptr @pmix_pointer_array_get_item(ptr noundef %71, i32 noundef %73)
  store ptr %74, ptr %16, align 8, !tbaa !3
  %75 = load ptr, ptr %16, align 8, !tbaa !3
  %76 = icmp eq ptr null, %75
  br i1 %76, label %77, label %78

77:                                               ; preds = %70
  store i32 -16, ptr %12, align 4, !tbaa !11
  br label %88

78:                                               ; preds = %70
  %79 = load ptr, ptr %16, align 8, !tbaa !3
  %80 = getelementptr inbounds nuw %struct.pmix_bfrop_type_info_t, ptr %79, i32 0, i32 4
  %81 = load ptr, ptr %80, align 8, !tbaa !31
  %82 = load ptr, ptr %7, align 8, !tbaa !13
  %83 = load ptr, ptr %8, align 8, !tbaa !3
  %84 = load ptr, ptr %9, align 8, !tbaa !3
  %85 = load ptr, ptr %10, align 8, !tbaa !7
  %86 = load i16, ptr %14, align 2, !tbaa !9
  %87 = call i32 %81(ptr noundef %82, ptr noundef %83, ptr noundef %84, ptr noundef %85, i16 noundef zeroext %86)
  store i32 %87, ptr %12, align 4, !tbaa !11
  br label %88

88:                                               ; preds = %78, %77
  call void @llvm.lifetime.end.p0(i64 8, ptr %16) #11
  br label %89

89:                                               ; preds = %88
  br label %90

90:                                               ; preds = %89
  %91 = load i32, ptr %12, align 4, !tbaa !11
  store i32 %91, ptr %6, align 4
  store i32 1, ptr %15, align 4
  br label %92

92:                                               ; preds = %90, %63, %55
  call void @llvm.lifetime.end.p0(i64 2, ptr %14) #11
  call void @llvm.lifetime.end.p0(i64 2, ptr %13) #11
  call void @llvm.lifetime.end.p0(i64 4, ptr %12) #11
  %93 = load i32, ptr %6, align 4
  ret i32 %93
}