; Function Attrs: nounwind uwtable
define i32 @pmix20_bfrop_unpack_buffer(ptr noundef %0, ptr noundef %1, ptr noundef %2, ptr noundef %3, i16 noundef zeroext %4) local_unnamed_addr #0 {
  %6 = alloca i16, align 2
  call void @llvm.lifetime.start.p0(i64 2, ptr nonnull %6) #10
  %7 = load i32, ptr getelementptr inbounds nuw (i8, ptr @pmix_bfrops_base_framework, i64 76), align 4, !tbaa !7
  %or.cond = icmp ult i32 %7, 64
  br i1 %or.cond, label %8, label %17

8:                                                ; preds = %5
  %9 = zext nneg i32 %7 to i64
  %10 = getelementptr inbounds nuw [0 x %struct.pmix_output_desc_t], ptr @pmix_output_info, i64 0, i64 %9, i32 2
  %11 = load i32, ptr %10, align 4, !tbaa !19
  %12 = icmp sgt i32 %11, 19
  br i1 %12, label %13, label %17

13:                                               ; preds = %8
  %14 = load i32, ptr %3, align 4, !tbaa !3
  %15 = sext i32 %14 to i64
  %16 = zext i16 %4 to i32
  tail call void (i32, ptr, ...) @pmix_output(i32 noundef %7, ptr noundef nonnull @.str.2, ptr noundef %1, ptr noundef %2, i64 noundef %15, i32 noundef %16) #10
  br label %17

17:                                               ; preds = %13, %8, %5
  %cond = icmp eq i16 %4, 34
  %. = select i1 %cond, i16 14, i16 %4
  %18 = getelementptr inbounds nuw i8, ptr %1, i64 120
  %19 = load i8, ptr %18, align 8, !tbaa !22
  %20 = icmp eq i8 %19, 2
  br i1 %20, label %21, label %28

21:                                               ; preds = %17
  %22 = call i32 @pmix20_bfrop_get_data_type(ptr noundef %0, ptr noundef nonnull %1, ptr noundef nonnull %6) #10
  %.not = icmp eq i32 %22, 0
  br i1 %.not, label %23, label %pmix_pointer_array_get_item.exit.thread

23:                                               ; preds = %21
  %24 = load i16, ptr %6, align 2, !tbaa !24
  %.not30 = icmp eq i16 %., %24
  br i1 %.not30, label %28, label %25

25:                                               ; preds = %23
  %26 = zext i16 %24 to i32
  %27 = zext i16 %. to i32
  call void (i32, ptr, ...) @pmix_output(i32 noundef 0, ptr noundef nonnull @.str.3, i32 noundef %26, i32 noundef %27) #10
  br label %pmix_pointer_array_get_item.exit.thread

28:                                               ; preds = %17, %23
  %29 = zext i16 %. to i32
  %30 = getelementptr inbounds nuw i8, ptr %0, i64 128
  %31 = load i32, ptr %30, align 8, !tbaa !26
  %.not.i = icmp sgt i32 %31, %29
  br i1 %.not.i, label %pmix_pointer_array_get_item.exit, label %pmix_pointer_array_get_item.exit.thread, !prof !29

pmix_pointer_array_get_item.exit:                 ; preds = %28
  %32 = getelementptr inbounds nuw i8, ptr %0, i64 152
  %33 = load ptr, ptr %32, align 8, !tbaa !30
  %34 = zext i16 %. to i64
  %35 = getelementptr inbounds nuw ptr, ptr %33, i64 %34
  %36 = load ptr, ptr %35, align 8, !tbaa !31
  %37 = icmp eq ptr %36, null
  br i1 %37, label %pmix_pointer_array_get_item.exit.thread, label %38

38:                                               ; preds = %pmix_pointer_array_get_item.exit
  %39 = getelementptr inbounds nuw i8, ptr %36, i64 144
  %40 = load ptr, ptr %39, align 8, !tbaa !32
  %41 = call i32 %40(ptr noundef nonnull %0, ptr noundef nonnull %1, ptr noundef %2, ptr noundef %3, i16 noundef zeroext %.) #10
  br label %pmix_pointer_array_get_item.exit.thread

pmix_pointer_array_get_item.exit.thread:          ; preds = %28, %38, %pmix_pointer_array_get_item.exit, %21, %25
  %.0 = phi i32 [ -22, %25 ], [ %22, %21 ], [ %41, %38 ], [ -16, %pmix_pointer_array_get_item.exit ], [ -16, %28 ]
  call void @llvm.lifetime.end.p0(i64 2, ptr nonnull %6) #10
  ret i32 %.0
}